; Function Attrs: mustprogress nounwind uwtable
define hidden void @_ZN12GCInitLogger21print_compressed_oopsEv(ptr nocapture nonnull readnone align 8 %0) unnamed_addr #0 align 2 {
  %2 = alloca %class.GCLogPreciousHandle, align 8
  %3 = alloca %class.GCLogPreciousHandle, align 8
  %4 = load i8, ptr @UseCompressedOops, align 1
  %5 = trunc i8 %4 to i1
  br i1 %5, label %6, label %9

6:                                                ; preds = %1
  store i32 3, ptr %2, align 8
  %.sroa.21.0..sroa_idx.i = getelementptr inbounds i8, ptr %2, i64 8
  store ptr @_ZN16LogTagSetMappingILN6LogTag4typeE49ELS1_58ELS1_0ELS1_0ELS1_0ELS1_0EE7_tagsetE, ptr %.sroa.21.0..sroa_idx.i, align 8
  %7 = tail call noundef i32 @_ZN14CompressedOops4modeEv() #7
  %8 = tail call noundef ptr @_ZN14CompressedOops14mode_to_stringENS_4ModeE(i32 noundef %7) #7
  call void (ptr, ptr, ...) @_ZN19GCLogPreciousHandle5writeEPKcz(ptr noundef nonnull align 8 dereferenceable(16) %2, ptr noundef nonnull @.str.10, ptr noundef %8)
  br label %10

9:                                                ; preds = %1
  store i32 3, ptr %3, align 8
  %.sroa.21.0..sroa_idx.i3 = getelementptr inbounds i8, ptr %3, i64 8
  store ptr @_ZN16LogTagSetMappingILN6LogTag4typeE49ELS1_58ELS1_0ELS1_0ELS1_0ELS1_0EE7_tagsetE, ptr %.sroa.21.0..sroa_idx.i3, align 8
  call void (ptr, ptr, ...) @_ZN19GCLogPreciousHandle5writeEPKcz(ptr noundef nonnull align 8 dereferenceable(16) %3, ptr noundef nonnull @.str.11)
  br label %10

10:                                               ; preds = %9, %6
  ret void
}